target datalayout = "e-m:e-p270:32:32-p271:32:32-p272:64:64-i64:64-i128:128-f80:128-n8:16:32:64-S128"
target triple = "x86_64-pc-linux-gnu"

@mac_key_hash_handlers = internal global ptr null, align 8
@num_ieee802154_keys = internal global i32 0, align 4
@ieee802154_keys = internal global ptr null, align 8
@proto_ieee802154 = internal global i32 0, align 4
@.str.18 = private unnamed_addr constant [14 x i8] c"IEEE 802.15.4\00", align 1
@ieee802154e_compatibility = internal global i8 0, align 1
@ieee802_15_4_short_address_type = internal global i32 -1, align 4
@ieee802154_sec_suite = internal global i32 6, align 4
@ieee802154_beacon_subdissector_list = internal global ptr null, align 8
@ieee802154_fcs_ok = internal global i8 1, align 1
@panid_dissector_table = internal global ptr null, align 8
@ieee802154_heur_subdissector_list = internal global ptr null, align 8
@.str.125 = private unnamed_addr constant [15 x i8] c"wpan.header_ie\00", align 1
@.str.178 = private unnamed_addr constant [16 x i8] c"wpan.payload_ie\00", align 1
@.str.725 = private unnamed_addr constant [5 x i8] c"wpan\00", align 1
@.str.726 = private unnamed_addr constant [11 x i8] c"wpan.panid\00", align 1
@.str.727 = private unnamed_addr constant [36 x i8] c"IEEE 802.15.4 Low-Rate Wireless PAN\00", align 1
@.str.728 = private unnamed_addr constant [48 x i8] c"IEEE 802.15.4 Low-Rate Wireless PAN non-ASK PHY\00", align 1
@.str.729 = private unnamed_addr constant [26 x i8] c"IEEE 802.15.4 non-ASK PHY\00", align 1
@.str.730 = private unnamed_addr constant [16 x i8] c"wpan-nonask-phy\00", align 1
@proto_ieee802154_nonask_phy = internal global i32 0, align 4
@.str.731 = private unnamed_addr constant [25 x i8] c"ZBOSS IEEE 802.15.4 dump\00", align 1
@.str.732 = private unnamed_addr constant [11 x i8] c"ZBOSS dump\00", align 1
@.str.733 = private unnamed_addr constant [11 x i8] c"wpan-zboss\00", align 1
@proto_zboss = internal global i32 0, align 4
@.str.734 = private unnamed_addr constant [40 x i8] c"IEEE 802.15.4 Low-Rate Wireless PAN TAP\00", align 1
@.str.735 = private unnamed_addr constant [18 x i8] c"IEEE 802.15.4 TAP\00", align 1
@.str.736 = private unnamed_addr constant [9 x i8] c"wpan-tap\00", align 1
@proto_ieee802154_tap = internal global i32 0, align 4
@.str.737 = private unnamed_addr constant [23 x i8] c"AT_IEEE_802_15_4_SHORT\00", align 1
@.str.738 = private unnamed_addr constant [35 x i8] c"IEEE 802.15.4 16-bit short address\00", align 1
@.str.739 = private unnamed_addr constant [17 x i8] c"802154_ethertype\00", align 1
@.str.740 = private unnamed_addr constant [28 x i8] c"802.15.4 Ethertype (in hex)\00", align 1
@.str.741 = private unnamed_addr constant [62 x i8] c"(Hexadecimal) Ethertype used to indicate IEEE 802.15.4 frame.\00", align 1
@ieee802154_ethertype = internal global i32 32922, align 4
@.str.742 = private unnamed_addr constant [14 x i8] c"802154_cc24xx\00", align 1
@.str.743 = private unnamed_addr constant [11 x i8] c"fcs_format\00", align 1
@.str.744 = private unnamed_addr constant [11 x i8] c"FCS format\00", align 1
@.str.745 = private unnamed_addr constant [39 x i8] c"The FCS format in the captured payload\00", align 1
@ieee802154_fcs_type = internal global i32 1, align 4
@.str.746 = private unnamed_addr constant [14 x i8] c"802154_fcs_ok\00", align 1
@.str.747 = private unnamed_addr constant [22 x i8] c"Dissect only good FCS\00", align 1
@.str.748 = private unnamed_addr constant [38 x i8] c"Dissect payload only if FCS is valid.\00", align 1
@.str.749 = private unnamed_addr constant [20 x i8] c"802154_ack_tracking\00", align 1
@.str.750 = private unnamed_addr constant [20 x i8] c"Enable ACK tracking\00", align 1
@.str.751 = private unnamed_addr constant [45 x i8] c"Match frames with ACK request to ACK packets\00", align 1
@ieee802154_ack_tracking = internal global i8 0, align 1
@.str.752 = private unnamed_addr constant [22 x i8] c"802154e_compatibility\00", align 1
@.str.753 = private unnamed_addr constant [40 x i8] c"Assume 802.15.4e-2012 for compatibility\00", align 1
@.str.754 = private unnamed_addr constant [50 x i8] c"Parse assuming 802.15.4e quirks for compatibility\00", align 1
@.str.755 = private unnamed_addr constant [17 x i8] c"Static Addresses\00", align 1
@.str.756 = private unnamed_addr constant [17 x i8] c"802154_addresses\00", align 1
@static_addrs = internal global ptr null, align 8
@num_static_addrs = internal global i32 0, align 4
@static_addr_uat = internal global ptr null, align 8
@.str.757 = private unnamed_addr constant [12 x i8] c"static_addr\00", align 1
@.str.758 = private unnamed_addr constant [88 x i8] c"A table of static address mappings between 16-bit short addressing and EUI-64 addresses\00", align 1
@.str.759 = private unnamed_addr constant [5 x i8] c"Keys\00", align 1
@.str.760 = private unnamed_addr constant [16 x i8] c"ieee802154_keys\00", align 1
@ieee802154_key_uat = internal global ptr null, align 8
@.str.761 = private unnamed_addr constant [16 x i8] c"Decryption Keys\00", align 1
@.str.762 = private unnamed_addr constant [34 x i8] c"Decryption key configuration data\00", align 1
@.str.763 = private unnamed_addr constant [11 x i8] c"802154_key\00", align 1
@.str.764 = private unnamed_addr constant [17 x i8] c"802154_sec_suite\00", align 1
@.str.765 = private unnamed_addr constant [31 x i8] c"Security Suite (802.15.4-2003)\00", align 1
@.str.766 = private unnamed_addr constant [160 x i8] c"Specifies the security suite to use for 802.15.4-2003 secured frames (only supported suites are listed). Option ignored for 802.15.4-2006 and unsecured frames.\00", align 1
@.str.767 = private unnamed_addr constant [19 x i8] c"802154_extend_auth\00", align 1
@.str.768 = private unnamed_addr constant [43 x i8] c"Extend authentication data (802.15.4-2003)\00", align 1
@.str.769 = private unnamed_addr constant [137 x i8] c"Set if the manufacturer extends the authentication data with the security header. Option ignored for 802.15.4-2006 and unsecured frames.\00", align 1
@ieee802154_extend_auth = internal global i8 1, align 1
@.str.770 = private unnamed_addr constant [20 x i8] c"IEEE 802.15.4 PANID\00", align 1
@.str.771 = private unnamed_addr constant [12 x i8] c"wpan.beacon\00", align 1
@.str.772 = private unnamed_addr constant [25 x i8] c"IEEE 802.15.4 FCF beacon\00", align 1
@.str.773 = private unnamed_addr constant [25 x i8] c"IEEE 802.15.4 Header IEs\00", align 1
@header_ie_dissector_table = internal global ptr null, align 8
@.str.774 = private unnamed_addr constant [26 x i8] c"IEEE 802.15.4 Payload IEs\00", align 1
@payload_ie_dissector_table = internal global ptr null, align 8
@.str.775 = private unnamed_addr constant [13 x i8] c"wpan.mlme_ie\00", align 1
@.str.776 = private unnamed_addr constant [25 x i8] c"IEEE 802.15.4 Nested IEs\00", align 1
@mlme_ie_dissector_table = internal global ptr null, align 8
@.str.777 = private unnamed_addr constant [16 x i8] c"wpan.cmd.vendor\00", align 1
@.str.778 = private unnamed_addr constant [39 x i8] c"IEEE 802.15.4 Vendor Specific Commands\00", align 1
@cmd_vendor_dissector_table = internal global ptr null, align 8
@ieee802154_handle = internal global ptr null, align 8
@.str.779 = private unnamed_addr constant [11 x i8] c"wpan_nofcs\00", align 1
@ieee802154_nofcs_handle = internal global ptr null, align 8
@.str.780 = private unnamed_addr constant [12 x i8] c"wpan_cc24xx\00", align 1
@ieee802154_nonask_phy_handle = internal global ptr null, align 8
@ieee802154_tap_handle = internal global ptr null, align 8
@transaction_unmatched_pdus = internal global ptr null, align 8
@transaction_matched_pdus = internal global ptr null, align 8
@ieee802154_tap = internal global i32 0, align 4

; Function Attrs: null_pointer_is_valid sspstrong uwtable
define hidden void @proto_register_ieee802154() #0 {
  %1 = alloca ptr, align 8
  %2 = alloca ptr, align 8
  call void @llvm.lifetime.start.p0(i64 8, ptr %1) #17
  call void @llvm.lifetime.start.p0(i64 8, ptr %2) #17
  call void @register_init_routine(ptr noundef @proto_init_ieee802154)
  call void @register_cleanup_routine(ptr noundef @proto_cleanup_ieee802154)
  %3 = call i32 @proto_register_protocol(ptr noundef @.str.727, ptr noundef @.str.18, ptr noundef @.str.725)
  store i32 %3, ptr @proto_ieee802154, align 4
  %4 = call i32 @proto_register_protocol(ptr noundef @.str.728, ptr noundef @.str.729, ptr noundef @.str.730)
  store i32 %4, ptr @proto_ieee802154_nonask_phy, align 4
  %5 = call i32 @proto_register_protocol(ptr noundef @.str.731, ptr noundef @.str.732, ptr noundef @.str.733)
  store i32 %5, ptr @proto_zboss, align 4
  %6 = call i32 @proto_register_protocol(ptr noundef @.str.734, ptr noundef @.str.735, ptr noundef @.str.736)
  store i32 %6, ptr @proto_ieee802154_tap, align 4
  %7 = load i32, ptr @proto_ieee802154, align 4
  call void @proto_register_field_array(i32 noundef %7, ptr noundef @proto_register_ieee802154.hf, i32 noundef 273)
  %8 = load i32, ptr @proto_ieee802154, align 4
  call void @proto_register_field_array(i32 noundef %8, ptr noundef @proto_register_ieee802154.hf_phy, i32 noundef 4)
  call void @proto_register_subtree_array(ptr noundef @proto_register_ieee802154.ett, i32 noundef 59)
  %9 = load i32, ptr @proto_ieee802154, align 4
  %10 = call ptr @expert_register_protocol(i32 noundef %9)
  store ptr %10, ptr %2, align 8
  %11 = load ptr, ptr %2, align 8
  call void @expert_register_field_array(ptr noundef %11, ptr noundef @proto_register_ieee802154.ei, i32 noundef 32)
  %12 = call i32 @address_type_dissector_register(ptr noundef @.str.737, ptr noundef @.str.738, ptr noundef @ieee802_15_4_short_address_to_str, ptr noundef @ieee802_15_4_short_address_str_len, ptr noundef null, ptr noundef null, ptr noundef @ieee802_15_4_short_address_len, ptr noundef null, ptr noundef null)
  store i32 %12, ptr @ieee802_15_4_short_address_type, align 4
  %13 = load i32, ptr @proto_ieee802154, align 4
  %14 = call ptr @prefs_register_protocol(i32 noundef %13, ptr noundef @proto_reg_handoff_ieee802154)
  store ptr %14, ptr %1, align 8
  %15 = load ptr, ptr %1, align 8
  call void @prefs_register_uint_preference(ptr noundef %15, ptr noundef @.str.739, ptr noundef @.str.740, ptr noundef @.str.741, i32 noundef 16, ptr noundef @ieee802154_ethertype)
  %16 = load ptr, ptr %1, align 8
  call void @prefs_register_obsolete_preference(ptr noundef %16, ptr noundef @.str.742)
  %17 = load ptr, ptr %1, align 8
  call void @prefs_register_enum_preference(ptr noundef %17, ptr noundef @.str.743, ptr noundef @.str.744, ptr noundef @.str.745, ptr noundef @ieee802154_fcs_type, ptr noundef @proto_register_ieee802154.fcs_type_vals, i1 noundef zeroext false)
  %18 = load ptr, ptr %1, align 8
  call void @prefs_register_bool_preference(ptr noundef %18, ptr noundef @.str.746, ptr noundef @.str.747, ptr noundef @.str.748, ptr noundef @ieee802154_fcs_ok)
  %19 = load ptr, ptr %1, align 8
  call void @prefs_register_bool_preference(ptr noundef %19, ptr noundef @.str.749, ptr noundef @.str.750, ptr noundef @.str.751, ptr noundef @ieee802154_ack_tracking)
  %20 = load ptr, ptr %1, align 8
  call void @prefs_register_bool_preference(ptr noundef %20, ptr noundef @.str.752, ptr noundef @.str.753, ptr noundef @.str.754, ptr noundef @ieee802154e_compatibility)
  %21 = call ptr @uat_new(ptr noundef @.str.755, i64 noundef 24, ptr noundef @.str.756, i1 noundef zeroext true, ptr noundef @static_addrs, ptr noundef @num_static_addrs, i32 noundef 1, ptr noundef null, ptr noundef @addr_uat_copy_cb, ptr noundef @addr_uat_update_cb, ptr noundef @addr_uat_free_cb, ptr noundef null, ptr noundef null, ptr noundef @proto_register_ieee802154.addr_uat_flds)
  store ptr %21, ptr @static_addr_uat, align 8
  %22 = load ptr, ptr %1, align 8
  %23 = load ptr, ptr @static_addr_uat, align 8
  call void @prefs_register_uat_preference(ptr noundef %22, ptr noundef @.str.757, ptr noundef @.str.755, ptr noundef @.str.758, ptr noundef %23)
  %24 = call ptr @uat_new(ptr noundef @.str.759, i64 noundef 48, ptr noundef @.str.760, i1 noundef zeroext true, ptr noundef @ieee802154_keys, ptr noundef @num_ieee802154_keys, i32 noundef 1, ptr noundef null, ptr noundef @ieee802154_key_copy_cb, ptr noundef @ieee802154_key_update_cb, ptr noundef @ieee802154_key_free_cb, ptr noundef @ieee802154_key_post_update_cb, ptr noundef null, ptr noundef @proto_register_ieee802154.key_uat_flds)
  store ptr %24, ptr @ieee802154_key_uat, align 8
  %25 = load ptr, ptr %1, align 8
  %26 = load ptr, ptr @ieee802154_key_uat, align 8
  call void @prefs_register_uat_preference(ptr noundef %25, ptr noundef @.str.760, ptr noundef @.str.761, ptr noundef @.str.762, ptr noundef %26)
  %27 = load ptr, ptr %1, align 8
  call void @prefs_register_obsolete_preference(ptr noundef %27, ptr noundef @.str.763)
  %28 = load ptr, ptr %1, align 8
  call void @prefs_register_enum_preference(ptr noundef %28, ptr noundef @.str.764, ptr noundef @.str.765, ptr noundef @.str.766, ptr noundef @ieee802154_sec_suite, ptr noundef @ieee802154_2003_sec_suite_enums, i1 noundef zeroext false)
  %29 = load ptr, ptr %1, align 8
  call void @prefs_register_bool_preference(ptr noundef %29, ptr noundef @.str.767, ptr noundef @.str.768, ptr noundef @.str.769, ptr noundef @ieee802154_extend_auth)
  %30 = load i32, ptr @proto_ieee802154, align 4
  %31 = call ptr @register_dissector_table(ptr noundef @.str.726, ptr noundef @.str.770, i32 noundef %30, i32 noundef 5, i32 noundef 2)
  store ptr %31, ptr @panid_dissector_table, align 8
  %32 = load i32, ptr @proto_ieee802154, align 4
  %33 = call ptr @register_heur_dissector_list_with_description(ptr noundef @.str.725, ptr noundef @.str.770, i32 noundef %32)
  store ptr %33, ptr @ieee802154_heur_subdissector_list, align 8
  %34 = load i32, ptr @proto_ieee802154, align 4
  %35 = call ptr @register_heur_dissector_list_with_description(ptr noundef @.str.771, ptr noundef @.str.772, i32 noundef %34)
  store ptr %35, ptr @ieee802154_beacon_subdissector_list, align 8
  %36 = load i32, ptr @proto_ieee802154, align 4
  %37 = call ptr @register_dissector_table(ptr noundef @.str.125, ptr noundef @.str.773, i32 noundef %36, i32 noundef 4, i32 noundef 2)
  store ptr %37, ptr @header_ie_dissector_table, align 8
  %38 = load i32, ptr @proto_ieee802154, align 4
  %39 = call ptr @register_dissector_table(ptr noundef @.str.178, ptr noundef @.str.774, i32 noundef %38, i32 noundef 4, i32 noundef 2)
  store ptr %39, ptr @payload_ie_dissector_table, align 8
  %40 = load i32, ptr @proto_ieee802154, align 4
  %41 = call ptr @register_dissector_table(ptr noundef @.str.775, ptr noundef @.str.776, i32 noundef %40, i32 noundef 4, i32 noundef 2)
  store ptr %41, ptr @mlme_ie_dissector_table, align 8
  %42 = load i32, ptr @proto_ieee802154, align 4
  %43 = call ptr @register_dissector_table(ptr noundef @.str.777, ptr noundef @.str.778, i32 noundef %42, i32 noundef 6, i32 noundef 2)
  store ptr %43, ptr @cmd_vendor_dissector_table, align 8
  %44 = load i32, ptr @proto_ieee802154, align 4
  %45 = call ptr @register_dissector(ptr noundef @.str.725, ptr noundef @dissect_ieee802154, i32 noundef %44)
  store ptr %45, ptr @ieee802154_handle, align 8
  %46 = load i32, ptr @proto_ieee802154, align 4
  %47 = call ptr @register_dissector(ptr noundef @.str.779, ptr noundef @dissect_ieee802154_nofcs, i32 noundef %46)
  store ptr %47, ptr @ieee802154_nofcs_handle, align 8
  %48 = load i32, ptr @proto_ieee802154, align 4
  %49 = call ptr @register_dissector(ptr noundef @.str.780, ptr noundef @dissect_ieee802154_cc24xx, i32 noundef %48)
  %50 = load i32, ptr @proto_ieee802154_nonask_phy, align 4
  %51 = call ptr @register_dissector(ptr noundef @.str.730, ptr noundef @dissect_ieee802154_nonask_phy, i32 noundef %50)
  store ptr %51, ptr @ieee802154_nonask_phy_handle, align 8
  %52 = load i32, ptr @proto_ieee802154_tap, align 4
  %53 = call ptr @register_dissector(ptr noundef @.str.736, ptr noundef @dissect_ieee802154_tap, i32 noundef %52)
  store ptr %53, ptr @ieee802154_tap_handle, align 8
  %54 = call ptr @wmem_epan_scope()
  %55 = call noalias ptr @wmem_tree_new(ptr noundef %54)
  store ptr %55, ptr @mac_key_hash_handlers, align 8
  call void @register_decode_as(ptr noundef @proto_register_ieee802154.ieee802154_da)
  %56 = call ptr @wmem_epan_scope()
  %57 = call ptr @wmem_file_scope()
  %58 = call noalias ptr @wmem_tree_new_autoreset(ptr noundef %56, ptr noundef %57)
  store ptr %58, ptr @transaction_unmatched_pdus, align 8
  %59 = call ptr @wmem_epan_scope()
  %60 = call ptr @wmem_file_scope()
  %61 = call noalias ptr @wmem_tree_new_autoreset(ptr noundef %59, ptr noundef %60)
  store ptr %61, ptr @transaction_matched_pdus, align 8
  %62 = call i32 @register_tap(ptr noundef @.str.725)
  store i32 %62, ptr @ieee802154_tap, align 4
  %63 = load i32, ptr @proto_ieee802154, align 4
  call void @register_conversation_table(i32 noundef %63, i1 noundef zeroext true, ptr noundef @ieee802154_conversation_packet, ptr noundef @ieee802154_endpoint_packet)
  call void @register_conversation_filter(ptr noundef @.str.725, ptr noundef @.str.18, ptr noundef @ieee802154_filter_valid, ptr noundef @ieee802154_build_filter, ptr noundef null)
  call void @llvm.lifetime.end.p0(i64 8, ptr %2) #17
  call void @llvm.lifetime.end.p0(i64 8, ptr %1) #17
  ret void
}