; Function Attrs: null_pointer_is_valid sspstrong uwtable
define hidden void @proto_register_ieee802154() local_unnamed_addr #0 {
  tail call void @register_init_routine(ptr noundef nonnull @proto_init_ieee802154)
  tail call void @register_cleanup_routine(ptr noundef nonnull @proto_cleanup_ieee802154)
  %1 = tail call i32 @proto_register_protocol(ptr noundef nonnull @.str.727, ptr noundef nonnull @.str.18, ptr noundef nonnull @.str.725)
  store i32 %1, ptr @proto_ieee802154, align 4
  %2 = tail call i32 @proto_register_protocol(ptr noundef nonnull @.str.728, ptr noundef nonnull @.str.729, ptr noundef nonnull @.str.730)
  store i32 %2, ptr @proto_ieee802154_nonask_phy, align 4
  %3 = tail call i32 @proto_register_protocol(ptr noundef nonnull @.str.731, ptr noundef nonnull @.str.732, ptr noundef nonnull @.str.733)
  store i32 %3, ptr @proto_zboss, align 4
  %4 = tail call i32 @proto_register_protocol(ptr noundef nonnull @.str.734, ptr noundef nonnull @.str.735, ptr noundef nonnull @.str.736)
  store i32 %4, ptr @proto_ieee802154_tap, align 4
  %5 = load i32, ptr @proto_ieee802154, align 4
  tail call void @proto_register_field_array(i32 noundef %5, ptr noundef nonnull @proto_register_ieee802154.hf, i32 noundef 273)
  %6 = load i32, ptr @proto_ieee802154, align 4
  tail call void @proto_register_field_array(i32 noundef %6, ptr noundef nonnull @proto_register_ieee802154.hf_phy, i32 noundef 4)
  tail call void @proto_register_subtree_array(ptr noundef nonnull @proto_register_ieee802154.ett, i32 noundef 59)
  %7 = load i32, ptr @proto_ieee802154, align 4
  %8 = tail call ptr @expert_register_protocol(i32 noundef %7)
  tail call void @expert_register_field_array(ptr noundef %8, ptr noundef nonnull @proto_register_ieee802154.ei, i32 noundef 32)
  %9 = tail call i32 @address_type_dissector_register(ptr noundef nonnull @.str.737, ptr noundef nonnull @.str.738, ptr noundef nonnull @ieee802_15_4_short_address_to_str, ptr noundef nonnull @ieee802_15_4_short_address_str_len, ptr noundef null, ptr noundef null, ptr noundef nonnull @ieee802_15_4_short_address_len, ptr noundef null, ptr noundef null)
  store i32 %9, ptr @ieee802_15_4_short_address_type, align 4
  %10 = load i32, ptr @proto_ieee802154, align 4
  %11 = tail call ptr @prefs_register_protocol(i32 noundef %10, ptr noundef nonnull @proto_reg_handoff_ieee802154)
  tail call void @prefs_register_uint_preference(ptr noundef %11, ptr noundef nonnull @.str.739, ptr noundef nonnull @.str.740, ptr noundef nonnull @.str.741, i32 noundef 16, ptr noundef nonnull @ieee802154_ethertype)
  tail call void @prefs_register_obsolete_preference(ptr noundef %11, ptr noundef nonnull @.str.742)
  tail call void @prefs_register_enum_preference(ptr noundef %11, ptr noundef nonnull @.str.743, ptr noundef nonnull @.str.744, ptr noundef nonnull @.str.745, ptr noundef nonnull @ieee802154_fcs_type, ptr noundef nonnull @proto_register_ieee802154.fcs_type_vals, i1 noundef zeroext false)
  tail call void @prefs_register_bool_preference(ptr noundef %11, ptr noundef nonnull @.str.746, ptr noundef nonnull @.str.747, ptr noundef nonnull @.str.748, ptr noundef nonnull @ieee802154_fcs_ok)
  tail call void @prefs_register_bool_preference(ptr noundef %11, ptr noundef nonnull @.str.749, ptr noundef nonnull @.str.750, ptr noundef nonnull @.str.751, ptr noundef nonnull @ieee802154_ack_tracking)
  tail call void @prefs_register_bool_preference(ptr noundef %11, ptr noundef nonnull @.str.752, ptr noundef nonnull @.str.753, ptr noundef nonnull @.str.754, ptr noundef nonnull @ieee802154e_compatibility)
  %12 = tail call ptr @uat_new(ptr noundef nonnull @.str.755, i64 noundef 24, ptr noundef nonnull @.str.756, i1 noundef zeroext true, ptr noundef nonnull @static_addrs, ptr noundef nonnull @num_static_addrs, i32 noundef 1, ptr noundef null, ptr noundef nonnull @addr_uat_copy_cb, ptr noundef nonnull @addr_uat_update_cb, ptr noundef nonnull @addr_uat_free_cb, ptr noundef null, ptr noundef null, ptr noundef nonnull @proto_register_ieee802154.addr_uat_flds)
  store ptr %12, ptr @static_addr_uat, align 8
  tail call void @prefs_register_uat_preference(ptr noundef %11, ptr noundef nonnull @.str.757, ptr noundef nonnull @.str.755, ptr noundef nonnull @.str.758, ptr noundef %12)
  %13 = tail call ptr @uat_new(ptr noundef nonnull @.str.759, i64 noundef 48, ptr noundef nonnull @.str.760, i1 noundef zeroext true, ptr noundef nonnull @ieee802154_keys, ptr noundef nonnull @num_ieee802154_keys, i32 noundef 1, ptr noundef null, ptr noundef nonnull @ieee802154_key_copy_cb, ptr noundef nonnull @ieee802154_key_update_cb, ptr noundef nonnull @ieee802154_key_free_cb, ptr noundef nonnull @ieee802154_key_post_update_cb, ptr noundef null, ptr noundef nonnull @proto_register_ieee802154.key_uat_flds)
  store ptr %13, ptr @ieee802154_key_uat, align 8
  tail call void @prefs_register_uat_preference(ptr noundef %11, ptr noundef nonnull @.str.760, ptr noundef nonnull @.str.761, ptr noundef nonnull @.str.762, ptr noundef %13)
  tail call void @prefs_register_obsolete_preference(ptr noundef %11, ptr noundef nonnull @.str.763)
  tail call void @prefs_register_enum_preference(ptr noundef %11, ptr noundef nonnull @.str.764, ptr noundef nonnull @.str.765, ptr noundef nonnull @.str.766, ptr noundef nonnull @ieee802154_sec_suite, ptr noundef nonnull @ieee802154_2003_sec_suite_enums, i1 noundef zeroext false)
  tail call void @prefs_register_bool_preference(ptr noundef %11, ptr noundef nonnull @.str.767, ptr noundef nonnull @.str.768, ptr noundef nonnull @.str.769, ptr noundef nonnull @ieee802154_extend_auth)
  %14 = load i32, ptr @proto_ieee802154, align 4
  %15 = tail call ptr @register_dissector_table(ptr noundef nonnull @.str.726, ptr noundef nonnull @.str.770, i32 noundef %14, i32 noundef 5, i32 noundef 2)
  store ptr %15, ptr @panid_dissector_table, align 8
  %16 = load i32, ptr @proto_ieee802154, align 4
  %17 = tail call ptr @register_heur_dissector_list_with_description(ptr noundef nonnull @.str.725, ptr noundef nonnull @.str.770, i32 noundef %16)
  store ptr %17, ptr @ieee802154_heur_subdissector_list, align 8
  %18 = load i32, ptr @proto_ieee802154, align 4
  %19 = tail call ptr @register_heur_dissector_list_with_description(ptr noundef nonnull @.str.771, ptr noundef nonnull @.str.772, i32 noundef %18)
  store ptr %19, ptr @ieee802154_beacon_subdissector_list, align 8
  %20 = load i32, ptr @proto_ieee802154, align 4
  %21 = tail call ptr @register_dissector_table(ptr noundef nonnull @.str.125, ptr noundef nonnull @.str.773, i32 noundef %20, i32 noundef 4, i32 noundef 2)
  store ptr %21, ptr @header_ie_dissector_table, align 8
  %22 = load i32, ptr @proto_ieee802154, align 4
  %23 = tail call ptr @register_dissector_table(ptr noundef nonnull @.str.178, ptr noundef nonnull @.str.774, i32 noundef %22, i32 noundef 4, i32 noundef 2)
  store ptr %23, ptr @payload_ie_dissector_table, align 8
  %24 = load i32, ptr @proto_ieee802154, align 4
  %25 = tail call ptr @register_dissector_table(ptr noundef nonnull @.str.775, ptr noundef nonnull @.str.776, i32 noundef %24, i32 noundef 4, i32 noundef 2)
  store ptr %25, ptr @mlme_ie_dissector_table, align 8
  %26 = load i32, ptr @proto_ieee802154, align 4
  %27 = tail call ptr @register_dissector_table(ptr noundef nonnull @.str.777, ptr noundef nonnull @.str.778, i32 noundef %26, i32 noundef 6, i32 noundef 2)
  store ptr %27, ptr @cmd_vendor_dissector_table, align 8
  %28 = load i32, ptr @proto_ieee802154, align 4
  %29 = tail call ptr @register_dissector(ptr noundef nonnull @.str.725, ptr noundef nonnull @dissect_ieee802154, i32 noundef %28)
  store ptr %29, ptr @ieee802154_handle, align 8
  %30 = load i32, ptr @proto_ieee802154, align 4
  %31 = tail call ptr @register_dissector(ptr noundef nonnull @.str.779, ptr noundef nonnull @dissect_ieee802154_nofcs, i32 noundef %30)
  store ptr %31, ptr @ieee802154_nofcs_handle, align 8
  %32 = load i32, ptr @proto_ieee802154, align 4
  %33 = tail call ptr @register_dissector(ptr noundef nonnull @.str.780, ptr noundef nonnull @dissect_ieee802154_cc24xx, i32 noundef %32)
  %34 = load i32, ptr @proto_ieee802154_nonask_phy, align 4
  %35 = tail call ptr @register_dissector(ptr noundef nonnull @.str.730, ptr noundef nonnull @dissect_ieee802154_nonask_phy, i32 noundef %34)
  store ptr %35, ptr @ieee802154_nonask_phy_handle, align 8
  %36 = load i32, ptr @proto_ieee802154_tap, align 4
  %37 = tail call ptr @register_dissector(ptr noundef nonnull @.str.736, ptr noundef nonnull @dissect_ieee802154_tap, i32 noundef %36)
  store ptr %37, ptr @ieee802154_tap_handle, align 8
  %38 = tail call ptr @wmem_epan_scope()
  %39 = tail call noalias ptr @wmem_tree_new(ptr noundef %38)
  store ptr %39, ptr @mac_key_hash_handlers, align 8
  tail call void @register_decode_as(ptr noundef nonnull @proto_register_ieee802154.ieee802154_da)
  %40 = tail call ptr @wmem_epan_scope()
  %41 = tail call ptr @wmem_file_scope()
  %42 = tail call noalias ptr @wmem_tree_new_autoreset(ptr noundef %40, ptr noundef %41)
  store ptr %42, ptr @transaction_unmatched_pdus, align 8
  %43 = tail call ptr @wmem_epan_scope()
  %44 = tail call ptr @wmem_file_scope()
  %45 = tail call noalias ptr @wmem_tree_new_autoreset(ptr noundef %43, ptr noundef %44)
  store ptr %45, ptr @transaction_matched_pdus, align 8
  %46 = tail call i32 @register_tap(ptr noundef nonnull @.str.725)
  store i32 %46, ptr @ieee802154_tap, align 4
  %47 = load i32, ptr @proto_ieee802154, align 4
  tail call void @register_conversation_table(i32 noundef %47, i1 noundef zeroext true, ptr noundef nonnull @ieee802154_conversation_packet, ptr noundef nonnull @ieee802154_endpoint_packet)
  tail call void @register_conversation_filter(ptr noundef nonnull @.str.725, ptr noundef nonnull @.str.18, ptr noundef nonnull @ieee802154_filter_valid, ptr noundef nonnull @ieee802154_build_filter, ptr noundef null)
  ret void
}